target datalayout = "e-m:e-p270:32:32-p271:32:32-p272:64:64-i64:64-i128:128-f80:128-n8:16:32:64-S128"
target triple = "x86_64-pc-linux-gnu"

%struct.slurm_update_node_msg = type { ptr, i32, ptr, ptr, ptr, ptr, ptr, ptr, ptr, ptr, ptr, ptr, i32, ptr, i32, i32, i32 }

@.str = private unnamed_addr constant [5 x i8] c"%s%s\00", align 1
@.str.1 = private unnamed_addr constant [2 x i8] c" \00", align 1
@.str.2 = private unnamed_addr constant [1 x i8] zeroinitializer, align 1
@exit_code = external global i32, align 4
@.str.3 = private unnamed_addr constant [23 x i8] c"Error creating node(s)\00", align 1

; Function Attrs: nounwind uwtable
define dso_local i32 @scontrol_create_node(i32 noundef %0, ptr noundef %1) #0 {
  %3 = alloca i32, align 4
  %4 = alloca i32, align 4
  %5 = alloca ptr, align 8
  %6 = alloca %struct.slurm_update_node_msg, align 8
  %7 = alloca ptr, align 8
  %8 = alloca i32, align 4
  %9 = alloca i32, align 4
  store i32 %0, ptr %4, align 4
  store ptr %1, ptr %5, align 8
  call void @llvm.lifetime.start.p0(i64 128, ptr %6) #6
  call void @llvm.lifetime.start.p0(i64 8, ptr %7) #6
  store ptr null, ptr %7, align 8
  call void @llvm.lifetime.start.p0(i64 4, ptr %8) #6
  store i32 0, ptr %8, align 4
  br label %10

10:                                               ; preds = %24, %2
  %11 = load i32, ptr %8, align 4
  %12 = load i32, ptr %4, align 4
  %13 = icmp slt i32 %11, %12
  br i1 %13, label %15, label %14

14:                                               ; preds = %10
  call void @llvm.lifetime.end.p0(i64 4, ptr %8) #6
  br label %27

15:                                               ; preds = %10
  %16 = load i32, ptr %8, align 4
  %17 = icmp sgt i32 %16, 0
  %18 = select i1 %17, ptr @.str.1, ptr @.str.2
  %19 = load ptr, ptr %5, align 8
  %20 = load i32, ptr %8, align 4
  %21 = sext i32 %20 to i64
  %22 = getelementptr inbounds ptr, ptr %19, i64 %21
  %23 = load ptr, ptr %22, align 8
  call void (ptr, ptr, ...) @_xstrfmtcat(ptr noundef %7, ptr noundef @.str, ptr noundef %18, ptr noundef %23)
  br label %24

24:                                               ; preds = %15
  %25 = load i32, ptr %8, align 4
  %26 = add nsw i32 %25, 1
  store i32 %26, ptr %8, align 4
  br label %10, !llvm.loop !8

27:                                               ; preds = %14
  call void @slurm_init_update_node_msg(ptr noundef %6)
  %28 = load ptr, ptr %7, align 8
  %29 = getelementptr inbounds nuw %struct.slurm_update_node_msg, ptr %6, i32 0, i32 3
  store ptr %28, ptr %29, align 8
  %30 = call i32 @slurm_create_node(ptr noundef %6)
  %31 = icmp ne i32 %30, 0
  br i1 %31, label %32, label %35

32:                                               ; preds = %27
  store i32 1, ptr @exit_code, align 4
  call void @slurm_perror(ptr noundef @.str.3)
  %33 = call ptr @__errno_location() #7
  %34 = load i32, ptr %33, align 4
  store i32 %34, ptr %3, align 4
  store i32 1, ptr %9, align 4
  br label %36

35:                                               ; preds = %27
  call void @slurm_xfree(ptr noundef %7)
  store i32 0, ptr %3, align 4
  store i32 1, ptr %9, align 4
  br label %36

36:                                               ; preds = %35, %32
  call void @llvm.lifetime.end.p0(i64 8, ptr %7) #6
  call void @llvm.lifetime.end.p0(i64 128, ptr %6) #6
  %37 = load i32, ptr %3, align 4
  ret i32 %37
}