; Function Attrs: nounwind uwtable
define dso_local i32 @scontrol_create_node(i32 noundef %0, ptr noundef readonly captures(none) %1) local_unnamed_addr #0 {
  %3 = alloca %struct.slurm_update_node_msg, align 8
  %4 = alloca ptr, align 8
  call void @llvm.lifetime.start.p0(i64 128, ptr nonnull %3) #8
  call void @llvm.lifetime.start.p0(i64 8, ptr nonnull %4) #8
  store ptr null, ptr %4, align 8
  %5 = icmp sgt i32 %0, 0
  br i1 %5, label %.lr.ph.preheader, label %._crit_edge

.lr.ph.preheader:                                 ; preds = %2
  %wide.trip.count = zext nneg i32 %0 to i64
  br label %.lr.ph

._crit_edge:                                      ; preds = %.lr.ph, %2
  call void @slurm_init_update_node_msg(ptr noundef nonnull %3) #8
  %6 = load ptr, ptr %4, align 8
  %7 = getelementptr inbounds nuw i8, ptr %3, i64 24
  store ptr %6, ptr %7, align 8
  %8 = call i32 @slurm_create_node(ptr noundef nonnull %3) #8
  %.not = icmp eq i32 %8, 0
  br i1 %.not, label %15, label %12

.lr.ph:                                           ; preds = %.lr.ph.preheader, %.lr.ph
  %indvars.iv = phi i64 [ 0, %.lr.ph.preheader ], [ %indvars.iv.next, %.lr.ph ]
  %.not7 = icmp eq i64 %indvars.iv, 0
  %9 = select i1 %.not7, ptr @.str.2, ptr @.str.1
  %10 = getelementptr inbounds nuw ptr, ptr %1, i64 %indvars.iv
  %11 = load ptr, ptr %10, align 8
  call void (ptr, ptr, ...) @_xstrfmtcat(ptr noundef nonnull %4, ptr noundef nonnull @.str, ptr noundef nonnull %9, ptr noundef %11) #8
  %indvars.iv.next = add nuw nsw i64 %indvars.iv, 1
  %exitcond.not = icmp eq i64 %indvars.iv.next, %wide.trip.count
  br i1 %exitcond.not, label %._crit_edge, label %.lr.ph, !llvm.loop !8

12:                                               ; preds = %._crit_edge
  store i32 1, ptr @exit_code, align 4
  call void @slurm_perror(ptr noundef nonnull @.str.3) #8
  %13 = tail call ptr @__errno_location() #9
  %14 = load i32, ptr %13, align 4
  br label %16

15:                                               ; preds = %._crit_edge
  call void @slurm_xfree(ptr noundef nonnull %4) #8
  br label %16

16:                                               ; preds = %15, %12
  %.06 = phi i32 [ %14, %12 ], [ 0, %15 ]
  call void @llvm.lifetime.end.p0(i64 8, ptr nonnull %4) #8
  call void @llvm.lifetime.end.p0(i64 128, ptr nonnull %3) #8
  ret i32 %.06
}